target datalayout = "e-m:e-p270:32:32-p271:32:32-p272:64:64-i64:64-i128:128-f80:128-n8:16:32:64-S128"
target triple = "x86_64-pc-linux-gnu"

; Function Attrs: null_pointer_is_valid sspstrong uwtable
define internal ptr @rtmpt_get_amf_param(ptr noundef %0, i32 noundef %1, ptr noundef %2, i32 noundef %3, ptr noundef %4) #0 {
  %6 = alloca ptr, align 8
  %7 = alloca ptr, align 8
  %8 = alloca i32, align 4
  %9 = alloca ptr, align 8
  %10 = alloca i32, align 4
  %11 = alloca ptr, align 8
  %12 = alloca i32, align 4
  %13 = alloca i32, align 4
  %14 = alloca i32, align 4
  %15 = alloca i8, align 1
  %16 = alloca i32, align 4
  %17 = alloca i32, align 4
  store ptr %0, ptr %7, align 8
  store i32 %1, ptr %8, align 4
  store ptr %2, ptr %9, align 8
  store i32 %3, ptr %10, align 4
  store ptr %4, ptr %11, align 8
  call void @llvm.lifetime.start.p0(i64 4, ptr %12) #12
  %18 = load ptr, ptr %7, align 8
  %19 = load i32, ptr %8, align 4
  %20 = call i32 @tvb_reported_length_remaining(ptr noundef %18, i32 noundef %19)
  store i32 %20, ptr %12, align 4
  call void @llvm.lifetime.start.p0(i64 4, ptr %13) #12
  call void @llvm.lifetime.start.p0(i64 4, ptr %14) #12
  br label %21

21:                                               ; preds = %37, %5
  %22 = load i32, ptr %12, align 4
  %23 = icmp ugt i32 %22, 0
  br i1 %23, label %24, label %27

24:                                               ; preds = %21
  %25 = load i32, ptr %10, align 4
  %26 = icmp sgt i32 %25, 0
  br label %27

27:                                               ; preds = %24, %21
  %28 = phi i1 [ false, %21 ], [ %26, %24 ]
  br i1 %28, label %29, label %46

29:                                               ; preds = %27
  %30 = load ptr, ptr %7, align 8
  %31 = load i32, ptr %8, align 4
  %32 = load ptr, ptr %9, align 8
  %33 = call i32 @rtmpt_get_amf_length(ptr noundef %30, i32 noundef %31, ptr noundef %32)
  store i32 %33, ptr %13, align 4
  %34 = load i32, ptr %13, align 4
  %35 = icmp eq i32 %34, 0
  br i1 %35, label %36, label %37

36:                                               ; preds = %29
  br label %46

37:                                               ; preds = %29
  %38 = load i32, ptr %13, align 4
  %39 = load i32, ptr %8, align 4
  %40 = add i32 %39, %38
  store i32 %40, ptr %8, align 4
  %41 = load i32, ptr %13, align 4
  %42 = load i32, ptr %12, align 4
  %43 = sub i32 %42, %41
  store i32 %43, ptr %12, align 4
  %44 = load i32, ptr %10, align 4
  %45 = add i32 %44, -1
  store i32 %45, ptr %10, align 4
  br label %21, !llvm.loop !19

46:                                               ; preds = %36, %27
  %47 = load i32, ptr %12, align 4
  %48 = icmp ugt i32 %47, 0
  br i1 %48, label %49, label %187

49:                                               ; preds = %46
  %50 = load i32, ptr %10, align 4
  %51 = icmp eq i32 %50, 0
  br i1 %51, label %52, label %187

52:                                               ; preds = %49
  call void @llvm.lifetime.start.p0(i64 1, ptr %15) #12
  %53 = load ptr, ptr %7, align 8
  %54 = load i32, ptr %8, align 4
  %55 = call zeroext i8 @tvb_get_uint8(ptr noundef %53, i32 noundef %54)
  store i8 %55, ptr %15, align 1
  %56 = load ptr, ptr %11, align 8
  %57 = icmp ne ptr %56, null
  br i1 %57, label %83, label %58

58:                                               ; preds = %52
  %59 = load i8, ptr %15, align 1
  %60 = zext i8 %59 to i32
  %61 = icmp eq i32 %60, 2
  br i1 %61, label %62, label %83

62:                                               ; preds = %58
  %63 = load i32, ptr %12, align 4
  %64 = icmp uge i32 %63, 3
  br i1 %64, label %65, label %83

65:                                               ; preds = %62
  %66 = load ptr, ptr %7, align 8
  %67 = load i32, ptr %8, align 4
  %68 = add i32 %67, 1
  %69 = call zeroext i16 @tvb_get_ntohs(ptr noundef %66, i32 noundef %68)
  %70 = zext i16 %69 to i32
  store i32 %70, ptr %14, align 4
  %71 = load i32, ptr %12, align 4
  %72 = load i32, ptr %14, align 4
  %73 = add i32 %72, 3
  %74 = icmp uge i32 %71, %73
  br i1 %74, label %75, label %82

75:                                               ; preds = %65
  %76 = call ptr @wmem_packet_scope()
  %77 = load ptr, ptr %7, align 8
  %78 = load i32, ptr %8, align 4
  %79 = add i32 %78, 3
  %80 = load i32, ptr %14, align 4
  %81 = call ptr @tvb_get_string_enc(ptr noundef %76, ptr noundef %77, i32 noundef %79, i32 noundef %80, i32 noundef 0)
  store ptr %81, ptr %6, align 8
  store i32 1, ptr %16, align 4
  br label %184

82:                                               ; preds = %65
  br label %83

83:                                               ; preds = %82, %62, %58, %52
  %84 = load ptr, ptr %11, align 8
  %85 = icmp ne ptr %84, null
  br i1 %85, label %86, label %183

86:                                               ; preds = %83
  %87 = load i8, ptr %15, align 1
  %88 = zext i8 %87 to i32
  %89 = icmp eq i32 %88, 3
  br i1 %89, label %90, label %183

90:                                               ; preds = %86
  %91 = load i32, ptr %8, align 4
  %92 = add i32 %91, 1
  store i32 %92, ptr %8, align 4
  %93 = load i32, ptr %12, align 4
  %94 = add i32 %93, -1
  store i32 %94, ptr %12, align 4
  br label %95

95:                                               ; preds = %181, %90
  %96 = load i32, ptr %12, align 4
  %97 = icmp ugt i32 %96, 2
  br i1 %97, label %98, label %182

98:                                               ; preds = %95
  call void @llvm.lifetime.start.p0(i64 4, ptr %17) #12
  %99 = load ptr, ptr %7, align 8
  %100 = load i32, ptr %8, align 4
  %101 = call zeroext i16 @tvb_get_ntohs(ptr noundef %99, i32 noundef %100)
  %102 = zext i16 %101 to i32
  store i32 %102, ptr %17, align 4
  %103 = load i32, ptr %12, align 4
  %104 = load i32, ptr %17, align 4
  %105 = add i32 2, %104
  %106 = add i32 %105, 3
  %107 = icmp ult i32 %103, %106
  br i1 %107, label %108, label %109

108:                                              ; preds = %98
  store i32 5, ptr %16, align 4
  br label %179

109:                                              ; preds = %98
  %110 = load ptr, ptr %7, align 8
  %111 = load i32, ptr %8, align 4
  %112 = add i32 %111, 2
  %113 = load ptr, ptr %11, align 8
  %114 = load ptr, ptr %11, align 8
  %115 = call i64 @strlen(ptr noundef %114) #14
  %116 = call i32 @tvb_strneql(ptr noundef %110, i32 noundef %112, ptr noundef %113, i64 noundef %115)
  %117 = icmp eq i32 %116, 0
  br i1 %117, label %118, label %155

118:                                              ; preds = %109
  %119 = load ptr, ptr %7, align 8
  %120 = load i32, ptr %8, align 4
  %121 = add i32 %120, 2
  %122 = load i32, ptr %17, align 4
  %123 = add i32 %121, %122
  %124 = call zeroext i8 @tvb_get_uint8(ptr noundef %119, i32 noundef %123)
  %125 = zext i8 %124 to i32
  %126 = icmp ne i32 %125, 2
  br i1 %126, label %127, label %128

127:                                              ; preds = %118
  store i32 5, ptr %16, align 4
  br label %179

128:                                              ; preds = %118
  %129 = load ptr, ptr %7, align 8
  %130 = load i32, ptr %8, align 4
  %131 = add i32 %130, 2
  %132 = load i32, ptr %17, align 4
  %133 = add i32 %131, %132
  %134 = add i32 %133, 1
  %135 = call zeroext i16 @tvb_get_ntohs(ptr noundef %129, i32 noundef %134)
  %136 = zext i16 %135 to i32
  store i32 %136, ptr %14, align 4
  %137 = load i32, ptr %12, align 4
  %138 = load i32, ptr %17, align 4
  %139 = add i32 2, %138
  %140 = add i32 %139, 3
  %141 = load i32, ptr %14, align 4
  %142 = add i32 %140, %141
  %143 = icmp ult i32 %137, %142
  br i1 %143, label %144, label %145

144:                                              ; preds = %128
  store i32 5, ptr %16, align 4
  br label %179

145:                                              ; preds = %128
  %146 = call ptr @wmem_packet_scope()
  %147 = load ptr, ptr %7, align 8
  %148 = load i32, ptr %8, align 4
  %149 = add i32 %148, 2
  %150 = load i32, ptr %17, align 4
  %151 = add i32 %149, %150
  %152 = add i32 %151, 3
  %153 = load i32, ptr %14, align 4
  %154 = call ptr @tvb_get_string_enc(ptr noundef %146, ptr noundef %147, i32 noundef %152, i32 noundef %153, i32 noundef 0)
  store ptr %154, ptr %6, align 8
  store i32 1, ptr %16, align 4
  br label %179

155:                                              ; preds = %109
  %156 = load ptr, ptr %7, align 8
  %157 = load i32, ptr %8, align 4
  %158 = add i32 %157, 2
  %159 = load i32, ptr %17, align 4
  %160 = add i32 %158, %159
  %161 = load ptr, ptr %9, align 8
  %162 = call i32 @rtmpt_get_amf_length(ptr noundef %156, i32 noundef %160, ptr noundef %161)
  store i32 %162, ptr %13, align 4
  %163 = load i32, ptr %13, align 4
  %164 = icmp eq i32 %163, 0
  br i1 %164, label %165, label %166

165:                                              ; preds = %155
  store i32 5, ptr %16, align 4
  br label %179

166:                                              ; preds = %155
  %167 = load i32, ptr %17, align 4
  %168 = add i32 2, %167
  %169 = load i32, ptr %13, align 4
  %170 = add i32 %168, %169
  %171 = load i32, ptr %8, align 4
  %172 = add i32 %171, %170
  store i32 %172, ptr %8, align 4
  %173 = load i32, ptr %17, align 4
  %174 = add i32 2, %173
  %175 = load i32, ptr %13, align 4
  %176 = add i32 %174, %175
  %177 = load i32, ptr %12, align 4
  %178 = sub i32 %177, %176
  store i32 %178, ptr %12, align 4
  store i32 0, ptr %16, align 4
  br label %179

179:                                              ; preds = %166, %165, %145, %144, %127, %108
  call void @llvm.lifetime.end.p0(i64 4, ptr %17) #12
  %180 = load i32, ptr %16, align 4
  switch i32 %180, label %184 [
    i32 0, label %181
    i32 5, label %182
  ]

181:                                              ; preds = %179
  br label %95, !llvm.loop !20

182:                                              ; preds = %179, %95
  br label %183

183:                                              ; preds = %182, %86, %83
  store i32 0, ptr %16, align 4
  br label %184

184:                                              ; preds = %183, %179, %75
  call void @llvm.lifetime.end.p0(i64 1, ptr %15) #12
  %185 = load i32, ptr %16, align 4
  switch i32 %185, label %188 [
    i32 0, label %186
  ]

186:                                              ; preds = %184
  br label %187

187:                                              ; preds = %186, %49, %46
  store ptr null, ptr %6, align 8
  store i32 1, ptr %16, align 4
  br label %188

188:                                              ; preds = %187, %184
  call void @llvm.lifetime.end.p0(i64 4, ptr %14) #12
  call void @llvm.lifetime.end.p0(i64 4, ptr %13) #12
  call void @llvm.lifetime.end.p0(i64 4, ptr %12) #12
  %189 = load ptr, ptr %6, align 8
  ret ptr %189
}