; Function Attrs: null_pointer_is_valid sspstrong uwtable
define internal fastcc ptr @rtmpt_get_amf_param(ptr noundef %0, i32 noundef range(i32 0, 512) %1, ptr noundef %2, i32 noundef range(i32 1, 4) %3, ptr noundef %4) unnamed_addr #0 {
  %6 = tail call i32 @tvb_reported_length_remaining(ptr noundef %0, i32 noundef %1)
  %.not129 = icmp eq i32 %6, 0
  br i1 %.not129, label %.thread, label %.lr.ph

.lr.ph:                                           ; preds = %5, %9
  %.077119 = phi i32 [ %10, %9 ], [ %1, %5 ]
  %.080118 = phi i32 [ %11, %9 ], [ %6, %5 ]
  %.083117 = phi i32 [ %12, %9 ], [ %3, %5 ]
  %7 = tail call fastcc i32 @rtmpt_get_amf_length(ptr noundef %0, i32 noundef %.077119, ptr noundef %2)
  %8 = icmp eq i32 %7, 0
  br i1 %8, label %.thread, label %9

9:                                                ; preds = %.lr.ph
  %10 = add i32 %7, %.077119
  %11 = sub i32 %.080118, %7
  %12 = add nsw i32 %.083117, -1
  %13 = icmp ne i32 %11, 0
  %14 = icmp sgt i32 %.083117, 1
  %15 = select i1 %13, i1 %14, i1 false
  br i1 %15, label %.lr.ph, label %._crit_edge, !llvm.loop !23

._crit_edge:                                      ; preds = %9
  %16 = icmp eq i32 %12, 0
  %17 = select i1 %13, i1 %16, i1 false
  br i1 %17, label %18, label %.thread

18:                                               ; preds = %._crit_edge
  %19 = tail call zeroext i8 @tvb_get_uint8(ptr noundef %0, i32 noundef %10)
  %20 = icmp eq ptr %4, null
  %21 = icmp eq i8 %19, 2
  %or.cond4 = select i1 %20, i1 %21, i1 false
  %22 = icmp ugt i32 %11, 2
  %or.cond6 = and i1 %22, %or.cond4
  br i1 %or.cond6, label %23, label %28

23:                                               ; preds = %18
  %24 = add i32 %10, 1
  %25 = tail call zeroext i16 @tvb_get_ntohs(ptr noundef %0, i32 noundef %24)
  %26 = zext i16 %25 to i32
  %27 = add nuw nsw i32 %26, 3
  %.not = icmp ult i32 %11, %27
  br i1 %.not, label %.thread, label %.thread.sink.split

28:                                               ; preds = %18
  %29 = icmp ne ptr %4, null
  %30 = icmp eq i8 %19, 3
  %or.cond9 = select i1 %29, i1 %30, i1 false
  br i1 %or.cond9, label %31, label %.thread

31:                                               ; preds = %28
  %32 = add i32 %11, -1
  %33 = icmp ugt i32 %32, 2
  br i1 %33, label %.lr.ph126.preheader, label %.thread

.lr.ph126.preheader:                              ; preds = %31
  %34 = add i32 %10, 1
  br label %.lr.ph126

.lr.ph126:                                        ; preds = %.lr.ph126.preheader, %57
  %.178124 = phi i32 [ %59, %57 ], [ %34, %.lr.ph126.preheader ]
  %.181123 = phi i32 [ %60, %57 ], [ %32, %.lr.ph126.preheader ]
  %35 = tail call zeroext i16 @tvb_get_ntohs(ptr noundef %0, i32 noundef %.178124)
  %36 = zext i16 %35 to i32
  %37 = add nuw nsw i32 %36, 2
  %38 = add nuw nsw i32 %36, 5
  %39 = icmp ult i32 %.181123, %38
  br i1 %39, label %.thread, label %40

40:                                               ; preds = %.lr.ph126
  %41 = add i32 %.178124, 2
  %42 = tail call i64 @strlen(ptr noundef nonnull dereferenceable(1) %4) #16
  %43 = tail call i32 @tvb_strneql(ptr noundef %0, i32 noundef %41, ptr noundef nonnull %4, i64 noundef %42)
  %44 = icmp eq i32 %43, 0
  %45 = add i32 %41, %36
  br i1 %44, label %46, label %54

46:                                               ; preds = %40
  %47 = tail call zeroext i8 @tvb_get_uint8(ptr noundef %0, i32 noundef %45)
  %.not88 = icmp eq i8 %47, 2
  br i1 %.not88, label %48, label %.thread

48:                                               ; preds = %46
  %49 = add i32 %45, 1
  %50 = tail call zeroext i16 @tvb_get_ntohs(ptr noundef %0, i32 noundef %49)
  %51 = zext i16 %50 to i32
  %52 = add nuw nsw i32 %38, %51
  %53 = icmp ult i32 %.181123, %52
  br i1 %53, label %.thread, label %.thread.sink.split

54:                                               ; preds = %40
  %55 = tail call fastcc i32 @rtmpt_get_amf_length(ptr noundef %0, i32 noundef %45, ptr noundef %2)
  %56 = icmp eq i32 %55, 0
  br i1 %56, label %.thread, label %57

57:                                               ; preds = %54
  %58 = add i32 %37, %55
  %59 = add i32 %58, %.178124
  %60 = sub i32 %.181123, %58
  %61 = icmp ugt i32 %60, 2
  br i1 %61, label %.lr.ph126, label %.thread

.thread.sink.split:                               ; preds = %48, %23
  %.lcssa152.sink = phi i32 [ %10, %23 ], [ %45, %48 ]
  %.sink154 = phi i32 [ %26, %23 ], [ %51, %48 ]
  %62 = tail call ptr @wmem_packet_scope()
  %63 = add i32 %.lcssa152.sink, 3
  %64 = tail call ptr @tvb_get_string_enc(ptr noundef %62, ptr noundef %0, i32 noundef %63, i32 noundef %.sink154, i32 noundef 0)
  br label %.thread

.thread:                                          ; preds = %.lr.ph, %57, %.lr.ph126, %54, %.thread.sink.split, %5, %31, %23, %48, %46, %28, %._crit_edge
  %.4 = phi ptr [ null, %._crit_edge ], [ null, %28 ], [ null, %46 ], [ null, %48 ], [ null, %23 ], [ null, %31 ], [ null, %5 ], [ %64, %.thread.sink.split ], [ null, %54 ], [ null, %.lr.ph126 ], [ null, %57 ], [ null, %.lr.ph ]
  ret ptr %.4
}